target datalayout = "e-m:e-p270:32:32-p271:32:32-p272:64:64-i64:64-i128:128-f80:128-n8:16:32:64-S128"
target triple = "x86_64-unknown-linux-gnu"

%struct.dmaengine_result = type { i32, i32 }
%struct.list_head = type { ptr, ptr }

; Function Attrs: fn_ret_thunk_extern nounwind null_pointer_is_valid
define internal void @vchan_complete(ptr noundef %0) #0 align 16 {
  %2 = alloca %struct.dmaengine_result, align 8
  %3 = alloca %struct.dmaengine_result, align 8
  %4 = alloca %struct.list_head, align 8
  call void @llvm.lifetime.start.p0(i64 16, ptr nonnull %4) #6
  call void @llvm.memset.p0.i64(ptr noundef nonnull align 8 dereferenceable(16) %4, i8 0, i64 16, i1 false), !annotation !9
  store ptr %4, ptr %4, align 8
  %5 = getelementptr inbounds i8, ptr %4, i64 8
  store ptr %4, ptr %5, align 8
  %6 = getelementptr i8, ptr %0, i64 48
  call void @_raw_spin_lock_irq(ptr noundef %6) #6
  %7 = getelementptr i8, ptr %0, i64 104
  %8 = load volatile ptr, ptr %7, align 8
  %9 = icmp eq ptr %8, %7
  br i1 %9, label %15, label %10

10:                                               ; preds = %1
  %11 = load ptr, ptr %5, align 8
  %12 = getelementptr i8, ptr %0, i64 112
  %13 = load ptr, ptr %12, align 8
  %14 = getelementptr inbounds i8, ptr %8, i64 8
  store ptr %11, ptr %14, align 8
  store ptr %8, ptr %11, align 8
  store ptr %4, ptr %13, align 8
  store ptr %13, ptr %5, align 8
  store volatile ptr %7, ptr %7, align 8
  store volatile ptr %7, ptr %12, align 8
  br label %15

15:                                               ; preds = %10, %1
  %16 = getelementptr i8, ptr %0, i64 136
  %17 = load ptr, ptr %16, align 8
  %18 = icmp eq ptr %17, null
  br i1 %18, label %26, label %19

19:                                               ; preds = %15
  store ptr null, ptr %16, align 8
  %20 = getelementptr inbounds i8, ptr %17, i64 40
  %21 = load ptr, ptr %20, align 8
  %22 = getelementptr inbounds i8, ptr %17, i64 48
  %23 = load ptr, ptr %22, align 8
  %24 = getelementptr inbounds i8, ptr %17, i64 56
  %25 = load ptr, ptr %24, align 8
  br label %26

26:                                               ; preds = %19, %15
  %27 = phi ptr [ %21, %19 ], [ null, %15 ]
  %28 = phi ptr [ %23, %19 ], [ null, %15 ]
  %29 = phi ptr [ %25, %19 ], [ null, %15 ]
  call void @_raw_spin_unlock_irq(ptr noundef %6) #6
  call void @llvm.lifetime.start.p0(i64 8, ptr nonnull %3) #6
  store i64 0, ptr %3, align 8
  %30 = icmp eq ptr %28, null
  br i1 %30, label %35, label %31

31:                                               ; preds = %26
  %32 = getelementptr inbounds i8, ptr %17, i64 88
  %33 = icmp eq ptr %32, null
  %34 = select i1 %33, ptr %3, ptr %32
  call void %28(ptr noundef %29, ptr noundef nonnull %34) #6
  br label %38

35:                                               ; preds = %26
  %36 = icmp eq ptr %27, null
  br i1 %36, label %38, label %37

37:                                               ; preds = %35
  call void %27(ptr noundef %29) #6
  br label %38

38:                                               ; preds = %37, %35, %31
  call void @llvm.lifetime.end.p0(i64 8, ptr nonnull %3) #6
  %39 = load ptr, ptr %4, align 8
  %40 = icmp eq ptr %39, %4
  br i1 %40, label %81, label %41

41:                                               ; preds = %79, %38
  %42 = phi ptr [ %44, %79 ], [ %39, %38 ]
  %43 = getelementptr i8, ptr %42, i64 -96
  %44 = load ptr, ptr %42, align 8
  %45 = getelementptr i8, ptr %42, i64 -56
  %46 = load ptr, ptr %45, align 8
  %47 = getelementptr i8, ptr %42, i64 -48
  %48 = load ptr, ptr %47, align 8
  %49 = getelementptr i8, ptr %42, i64 -40
  %50 = load ptr, ptr %49, align 8
  %51 = getelementptr inbounds i8, ptr %42, i64 8
  %52 = load ptr, ptr %51, align 8
  %53 = getelementptr inbounds i8, ptr %44, i64 8
  store ptr %52, ptr %53, align 8
  store volatile ptr %44, ptr %52, align 8
  store ptr inttoptr (i64 -2401263026318606080 to ptr), ptr %42, align 8
  store ptr inttoptr (i64 -2401263026318606046 to ptr), ptr %51, align 8
  call void @llvm.lifetime.start.p0(i64 8, ptr nonnull %2) #6
  store i64 0, ptr %2, align 8
  %54 = icmp eq ptr %48, null
  br i1 %54, label %59, label %55

55:                                               ; preds = %41
  %56 = getelementptr i8, ptr %42, i64 -8
  %57 = icmp eq ptr %56, null
  %58 = select i1 %57, ptr %2, ptr %56
  call void %48(ptr noundef %50, ptr noundef nonnull %58) #6
  br label %62

59:                                               ; preds = %41
  %60 = icmp eq ptr %46, null
  br i1 %60, label %62, label %61

61:                                               ; preds = %59
  call void %46(ptr noundef %50) #6
  br label %62

62:                                               ; preds = %61, %59, %55
  call void @llvm.lifetime.end.p0(i64 8, ptr nonnull %2) #6
  %63 = getelementptr i8, ptr %42, i64 -80
  %64 = load ptr, ptr %63, align 8
  %65 = getelementptr i8, ptr %42, i64 -92
  %66 = load i32, ptr %65, align 4
  %67 = and i32 %66, 64
  %68 = icmp eq i32 %67, 0
  br i1 %68, label %76, label %69

69:                                               ; preds = %62
  %70 = getelementptr inbounds i8, ptr %64, i64 160
  %71 = call i64 @_raw_spin_lock_irqsave(ptr noundef %70) #6
  %72 = getelementptr inbounds i8, ptr %64, i64 168
  %73 = load ptr, ptr %72, align 8
  %74 = getelementptr inbounds i8, ptr %73, i64 8
  store ptr %42, ptr %74, align 8
  store ptr %73, ptr %42, align 8
  %75 = getelementptr i8, ptr %42, i64 8
  store ptr %72, ptr %75, align 8
  store volatile ptr %42, ptr %72, align 8
  call void @_raw_spin_unlock_irqrestore(ptr noundef %70, i64 noundef %71) #6
  br label %79

76:                                               ; preds = %62
  %77 = getelementptr inbounds i8, ptr %64, i64 152
  %78 = load ptr, ptr %77, align 8
  call void %78(ptr noundef %43) #6
  br label %79

79:                                               ; preds = %76, %69
  %80 = icmp eq ptr %44, %4
  br i1 %80, label %81, label %41, !llvm.loop !10

81:                                               ; preds = %79, %38
  call void @llvm.lifetime.end.p0(i64 16, ptr nonnull %4) #6
  ret void
}