; Function Attrs: fn_ret_thunk_extern nounwind null_pointer_is_valid
define internal void @vchan_complete(ptr noundef %0) #0 align 16 {
  %2 = alloca %struct.dmaengine_result, align 8
  %3 = alloca %struct.list_head, align 8
  call void @llvm.lifetime.start.p0(i64 16, ptr nonnull %3) #5
  store ptr %3, ptr %3, align 8
  %4 = getelementptr inbounds i8, ptr %3, i64 8
  store ptr %3, ptr %4, align 8
  %5 = getelementptr i8, ptr %0, i64 48
  call void @_raw_spin_lock_irq(ptr noundef %5) #5
  %6 = getelementptr i8, ptr %0, i64 104
  %7 = load volatile ptr, ptr %6, align 8
  %8 = icmp eq ptr %7, %6
  br i1 %8, label %14, label %9

9:                                                ; preds = %1
  %10 = load ptr, ptr %4, align 8
  %11 = getelementptr i8, ptr %0, i64 112
  %12 = load ptr, ptr %11, align 8
  %13 = getelementptr inbounds i8, ptr %7, i64 8
  store ptr %10, ptr %13, align 8
  store ptr %7, ptr %10, align 8
  store ptr %3, ptr %12, align 8
  store ptr %12, ptr %4, align 8
  store volatile ptr %6, ptr %6, align 8
  store volatile ptr %6, ptr %11, align 8
  br label %14

14:                                               ; preds = %9, %1
  %15 = getelementptr i8, ptr %0, i64 136
  %16 = load ptr, ptr %15, align 8
  %17 = icmp eq ptr %16, null
  br i1 %17, label %.thread9, label %18

.thread9:                                         ; preds = %14
  call void @_raw_spin_unlock_irq(ptr noundef %5) #5
  br label %31

18:                                               ; preds = %14
  store ptr null, ptr %15, align 8
  %19 = getelementptr inbounds i8, ptr %16, i64 40
  %20 = load ptr, ptr %19, align 8
  %21 = getelementptr inbounds i8, ptr %16, i64 48
  %22 = load ptr, ptr %21, align 8
  %23 = getelementptr inbounds i8, ptr %16, i64 56
  %24 = load ptr, ptr %23, align 8
  call void @_raw_spin_unlock_irq(ptr noundef %5) #5
  %25 = icmp eq ptr %22, null
  br i1 %25, label %28, label %26

26:                                               ; preds = %18
  %27 = getelementptr inbounds i8, ptr %16, i64 88
  call void %22(ptr noundef %24, ptr noundef nonnull %27) #5
  br label %31

28:                                               ; preds = %18
  %29 = icmp eq ptr %20, null
  br i1 %29, label %31, label %30

30:                                               ; preds = %28
  call void %20(ptr noundef %24) #5
  br label %31

31:                                               ; preds = %.thread9, %30, %28, %26
  %32 = load ptr, ptr %3, align 8
  %33 = icmp eq ptr %32, %3
  br i1 %33, label %.loopexit, label %.preheader

.preheader:                                       ; preds = %31, %70
  %34 = phi ptr [ %36, %70 ], [ %32, %31 ]
  %35 = getelementptr i8, ptr %34, i64 -96
  %36 = load ptr, ptr %34, align 8
  %37 = getelementptr i8, ptr %34, i64 -56
  %38 = load ptr, ptr %37, align 8
  %39 = getelementptr i8, ptr %34, i64 -48
  %40 = load ptr, ptr %39, align 8
  %41 = getelementptr i8, ptr %34, i64 -40
  %42 = load ptr, ptr %41, align 8
  %43 = getelementptr inbounds i8, ptr %34, i64 8
  %44 = load ptr, ptr %43, align 8
  %45 = getelementptr inbounds i8, ptr %36, i64 8
  store ptr %44, ptr %45, align 8
  store volatile ptr %36, ptr %44, align 8
  store ptr inttoptr (i64 -2401263026318606080 to ptr), ptr %34, align 8
  store ptr inttoptr (i64 -2401263026318606046 to ptr), ptr %43, align 8
  call void @llvm.lifetime.start.p0(i64 8, ptr nonnull %2) #5
  store i64 0, ptr %2, align 8
  %46 = icmp eq ptr %40, null
  br i1 %46, label %51, label %47

47:                                               ; preds = %.preheader
  %48 = getelementptr i8, ptr %34, i64 -8
  %49 = icmp eq ptr %48, null
  %50 = select i1 %49, ptr %2, ptr %48
  call void %40(ptr noundef %42, ptr noundef nonnull %50) #5
  br label %54

51:                                               ; preds = %.preheader
  %52 = icmp eq ptr %38, null
  br i1 %52, label %54, label %53

53:                                               ; preds = %51
  call void %38(ptr noundef %42) #5
  br label %54

54:                                               ; preds = %53, %51, %47
  call void @llvm.lifetime.end.p0(i64 8, ptr nonnull %2) #5
  %55 = getelementptr i8, ptr %34, i64 -80
  %56 = load ptr, ptr %55, align 8
  %57 = getelementptr i8, ptr %34, i64 -92
  %58 = load i32, ptr %57, align 4
  %59 = and i32 %58, 64
  %60 = icmp eq i32 %59, 0
  br i1 %60, label %67, label %61

61:                                               ; preds = %54
  %62 = getelementptr inbounds i8, ptr %56, i64 160
  %63 = call i64 @_raw_spin_lock_irqsave(ptr noundef %62) #5
  %64 = getelementptr inbounds i8, ptr %56, i64 168
  %65 = load ptr, ptr %64, align 8
  %66 = getelementptr inbounds i8, ptr %65, i64 8
  store ptr %34, ptr %66, align 8
  store ptr %65, ptr %34, align 8
  store ptr %64, ptr %43, align 8
  store volatile ptr %34, ptr %64, align 8
  call void @_raw_spin_unlock_irqrestore(ptr noundef %62, i64 noundef %63) #5
  br label %70

67:                                               ; preds = %54
  %68 = getelementptr inbounds i8, ptr %56, i64 152
  %69 = load ptr, ptr %68, align 8
  call void %69(ptr noundef %35) #5
  br label %70

70:                                               ; preds = %67, %61
  %71 = icmp eq ptr %36, %3
  br i1 %71, label %.loopexit, label %.preheader, !llvm.loop !9

.loopexit:                                        ; preds = %70, %31
  call void @llvm.lifetime.end.p0(i64 16, ptr nonnull %3) #5
  ret void
}